target datalayout = "e-m:e-p270:32:32-p271:32:32-p272:64:64-i64:64-i128:128-f80:128-n8:16:32:64-S128"
target triple = "x86_64-pc-linux-gnu"

%"struct.cv::face::FacemarkAAM::Params" = type { %"class.std::__cxx11::basic_string", i32, i32, i32, i8, i8, i32, i32, i32, %"class.std::vector" }
%"class.std::__cxx11::basic_string" = type { %"struct.std::__cxx11::basic_string<char>::_Alloc_hider", i64, %union.anon }
%"struct.std::__cxx11::basic_string<char>::_Alloc_hider" = type { ptr }
%union.anon = type { i64, [8 x i8] }
%"class.std::vector" = type { %"struct.std::_Vector_base" }
%"struct.std::_Vector_base" = type { %"struct.std::_Vector_base<float, std::allocator<float>>::_Vector_impl" }
%"struct.std::_Vector_base<float, std::allocator<float>>::_Vector_impl" = type { %"struct.std::_Vector_base<float, std::allocator<float>>::_Vector_impl_data" }
%"struct.std::_Vector_base<float, std::allocator<float>>::_Vector_impl_data" = type { ptr, ptr, ptr }
%"class.cv::Mat" = type { i32, i32, i32, i32, ptr, ptr, ptr, ptr, ptr, ptr, %"struct.cv::MatSize", %"struct.cv::MatStep" }
%"struct.cv::MatSize" = type { ptr }
%"struct.cv::MatStep" = type { ptr, [2 x i64] }
%"class.cv::face::FacemarkAAMImpl" = type <{ %"class.cv::face::FacemarkAAM", %"class.std::vector.11", %"class.std::vector.16", %"struct.cv::face::FacemarkAAM::Params", %"struct.cv::face::FacemarkAAM::Model", ptr, ptr, i8, [7 x i8] }>
%"class.cv::face::FacemarkAAM" = type { %"class.cv::face::FacemarkTrain" }
%"class.cv::face::FacemarkTrain" = type { %"class.cv::face::Facemark" }
%"class.cv::face::Facemark" = type { %"class.cv::Algorithm" }
%"class.cv::Algorithm" = type { ptr }
%"class.std::vector.11" = type { %"struct.std::_Vector_base.12" }
%"struct.std::_Vector_base.12" = type { %"struct.std::_Vector_base<cv::Mat, std::allocator<cv::Mat>>::_Vector_impl" }
%"struct.std::_Vector_base<cv::Mat, std::allocator<cv::Mat>>::_Vector_impl" = type { %"struct.std::_Vector_base<cv::Mat, std::allocator<cv::Mat>>::_Vector_impl_data" }
%"struct.std::_Vector_base<cv::Mat, std::allocator<cv::Mat>>::_Vector_impl_data" = type { ptr, ptr, ptr }
%"class.std::vector.16" = type { %"struct.std::_Vector_base.17" }
%"struct.std::_Vector_base.17" = type { %"struct.std::_Vector_base<std::vector<cv::Point_<float>>, std::allocator<std::vector<cv::Point_<float>>>>::_Vector_impl" }
%"struct.std::_Vector_base<std::vector<cv::Point_<float>>, std::allocator<std::vector<cv::Point_<float>>>>::_Vector_impl" = type { %"struct.std::_Vector_base<std::vector<cv::Point_<float>>, std::allocator<std::vector<cv::Point_<float>>>>::_Vector_impl_data" }
%"struct.std::_Vector_base<std::vector<cv::Point_<float>>, std::allocator<std::vector<cv::Point_<float>>>>::_Vector_impl_data" = type { ptr, ptr, ptr }
%"struct.cv::face::FacemarkAAM::Model" = type { %"class.std::vector", %"class.std::vector.21", %"class.std::vector.26", %"class.std::vector.31", %"class.cv::Mat", %"class.cv::Mat" }
%"class.std::vector.21" = type { %"struct.std::_Vector_base.22" }
%"struct.std::_Vector_base.22" = type { %"struct.std::_Vector_base<cv::Vec<int, 3>, std::allocator<cv::Vec<int, 3>>>::_Vector_impl" }
%"struct.std::_Vector_base<cv::Vec<int, 3>, std::allocator<cv::Vec<int, 3>>>::_Vector_impl" = type { %"struct.std::_Vector_base<cv::Vec<int, 3>, std::allocator<cv::Vec<int, 3>>>::_Vector_impl_data" }
%"struct.std::_Vector_base<cv::Vec<int, 3>, std::allocator<cv::Vec<int, 3>>>::_Vector_impl_data" = type { ptr, ptr, ptr }
%"class.std::vector.26" = type { %"struct.std::_Vector_base.27" }
%"struct.std::_Vector_base.27" = type { %"struct.std::_Vector_base<cv::face::FacemarkAAM::Model::Texture, std::allocator<cv::face::FacemarkAAM::Model::Texture>>::_Vector_impl" }
%"struct.std::_Vector_base<cv::face::FacemarkAAM::Model::Texture, std::allocator<cv::face::FacemarkAAM::Model::Texture>>::_Vector_impl" = type { %"struct.std::_Vector_base<cv::face::FacemarkAAM::Model::Texture, std::allocator<cv::face::FacemarkAAM::Model::Texture>>::_Vector_impl_data" }
%"struct.std::_Vector_base<cv::face::FacemarkAAM::Model::Texture, std::allocator<cv::face::FacemarkAAM::Model::Texture>>::_Vector_impl_data" = type { ptr, ptr, ptr }
%"class.std::vector.31" = type { %"struct.std::_Vector_base.32" }
%"struct.std::_Vector_base.32" = type { %"struct.std::_Vector_base<cv::Point_<float>, std::allocator<cv::Point_<float>>>::_Vector_impl" }
%"struct.std::_Vector_base<cv::Point_<float>, std::allocator<cv::Point_<float>>>::_Vector_impl" = type { %"struct.std::_Vector_base<cv::Point_<float>, std::allocator<cv::Point_<float>>>::_Vector_impl_data" }
%"struct.std::_Vector_base<cv::Point_<float>, std::allocator<cv::Point_<float>>>::_Vector_impl_data" = type { ptr, ptr, ptr }

; Function Attrs: mustprogress uwtable
define hidden void @_ZN2cv4face15FacemarkAAMImpl4readERKNS_8FileNodeE(ptr noundef nonnull align 8 dereferenceable(449) %0, ptr noundef nonnull align 8 dereferenceable(24) %1) unnamed_addr #4 align 2 {
  %3 = alloca ptr, align 8
  %4 = alloca ptr, align 8
  store ptr %0, ptr %3, align 8
  store ptr %1, ptr %4, align 8
  %5 = load ptr, ptr %3, align 8
  %6 = getelementptr inbounds %"class.cv::face::FacemarkAAMImpl", ptr %5, i32 0, i32 3
  %7 = load ptr, ptr %4, align 8
  call void @_ZN2cv4face11FacemarkAAM6Params4readERKNS_8FileNodeE(ptr noundef nonnull align 8 dereferenceable(88) %6, ptr noundef nonnull align 8 dereferenceable(24) %7)
  ret void
}

; Function Attrs: uwtable
define hidden void @_ZTv0_n48_N2cv4face15FacemarkAAMImpl4readERKNS_8FileNodeE(ptr noundef %0, ptr noundef nonnull align 8 dereferenceable(24) %1) unnamed_addr #0 align 2 {
  %3 = alloca ptr, align 8
  %4 = alloca ptr, align 8
  store ptr %0, ptr %3, align 8
  store ptr %1, ptr %4, align 8
  %5 = load ptr, ptr %3, align 8
  %6 = load ptr, ptr %5, align 8
  %7 = getelementptr inbounds i8, ptr %6, i64 -48
  %8 = load i64, ptr %7, align 8
  %9 = getelementptr inbounds i8, ptr %5, i64 %8
  %10 = load ptr, ptr %4, align 8
  tail call void @_ZN2cv4face15FacemarkAAMImpl4readERKNS_8FileNodeE(ptr noundef nonnull align 8 dereferenceable(449) %9, ptr noundef nonnull align 8 dereferenceable(24) %10)
  ret void
}