; Function Attrs: uwtable
define hidden void @_ZTv0_n48_N2cv4face15FacemarkAAMImpl4readERKNS_8FileNodeE(ptr noundef %0, ptr noundef nonnull align 8 dereferenceable(24) %1) unnamed_addr #9 align 2 {
  %3 = load ptr, ptr %0, align 8
  %4 = getelementptr inbounds i8, ptr %3, i64 -48
  %5 = load i64, ptr %4, align 8
  %6 = getelementptr inbounds i8, ptr %0, i64 %5
  %7 = getelementptr inbounds i8, ptr %6, i64 56
  tail call void @_ZN2cv4face11FacemarkAAM6Params4readERKNS_8FileNodeE(ptr noundef nonnull align 8 dereferenceable(88) %7, ptr noundef nonnull align 8 dereferenceable(24) %1)
  ret void
}